target datalayout = "e-m:e-p270:32:32-p271:32:32-p272:64:64-i64:64-i128:128-f80:128-n8:16:32:64-S128"
target triple = "x86_64-unknown-linux-gnu"

%struct.BlockLimits = type { i32, i64, i32, i64, i32, i32, i32, i64, i32, i64, i64, i32, i8, i32, i32, i32, i32, i32, i32, i32 }
%struct.BlockDriverState = type { i32, i8, i8, i8, i8, i8, ptr, ptr, ptr, %struct.anon.1, i8, [4096 x i8], [4096 x i8], [4096 x i8], [16 x i8], ptr, [4096 x i8], %struct.BlockLimits, i32, i32, i32, i32, [32 x i8], %union.anon, %union.anon.2, %union.anon.3, i32, [16 x %struct.anon.4], ptr, %struct.anon.5, ptr, ptr, %struct.anon.6, ptr, ptr, i32, ptr, i64, i64, %struct.QemuMutex, %struct.anon.7, %struct.Stat64, i32, i32, i32, i32, i32, i32, %struct.QemuMutex, %struct.anon.8, %struct.CoQueue, i8, i32, i8, %struct.CoMutex, ptr, ptr }
%struct.anon.1 = type { ptr }
%union.anon = type { %struct.QTailQLink }
%struct.QTailQLink = type { ptr, ptr }
%union.anon.2 = type { %struct.QTailQLink }
%union.anon.3 = type { %struct.QTailQLink }
%struct.anon.4 = type { ptr }
%struct.anon.5 = type { ptr }
%struct.anon.6 = type { ptr }
%struct.anon.7 = type { ptr }
%struct.Stat64 = type { i64 }
%struct.QemuMutex = type { %union.pthread_mutex_t, i8 }
%union.pthread_mutex_t = type { %struct.__pthread_mutex_s }
%struct.__pthread_mutex_s = type { i32, i32, i32, i32, i32, i16, i16, %struct.__pthread_internal_list }
%struct.__pthread_internal_list = type { ptr, ptr }
%struct.anon.8 = type { ptr }
%struct.CoQueue = type { %struct.anon.9 }
%struct.anon.9 = type { ptr, ptr }
%struct.CoMutex = type { i32, ptr, %struct.anon.10, %struct.anon.10, i32, i32, ptr }
%struct.anon.10 = type { ptr }
%struct.BlockDriver = type { ptr, i32, i8, i8, i8, i8, i8, i8, ptr, ptr, ptr, ptr, ptr, ptr, ptr, ptr, ptr, ptr, ptr, ptr, ptr, ptr, ptr, ptr, ptr, ptr, ptr, ptr, ptr, ptr, ptr, ptr, ptr, ptr, ptr, ptr, ptr, ptr, ptr, ptr, ptr, ptr, ptr, ptr, ptr, ptr, ptr, ptr, ptr, ptr, ptr, ptr, ptr, ptr, ptr, ptr, ptr, ptr, ptr, ptr, ptr, %struct.anon.11, ptr, ptr, ptr, ptr, ptr, ptr, ptr, ptr, ptr, ptr, ptr, ptr, ptr, ptr, ptr, ptr, ptr, ptr, ptr, ptr, ptr, ptr, ptr, ptr, ptr, ptr, ptr, ptr, ptr, ptr, ptr, ptr, ptr, ptr, ptr, ptr, ptr, ptr, ptr, ptr, ptr, ptr, ptr, ptr, ptr, ptr, ptr, ptr, ptr }
%struct.anon.11 = type { ptr, ptr }
%struct.QEMUIOVector = type { ptr, i32, %union.anon.13 }
%union.anon.13 = type { %struct.anon.14 }
%struct.anon.14 = type { i32, %struct.iovec }
%struct.iovec = type { ptr, i64 }
%struct.anon.15 = type { [12 x i8], i64 }
%struct.CoroutineIOCompletion = type { ptr, i32 }

@.str.1 = private unnamed_addr constant [19 x i8] c"../qemu/block/io.c\00", align 1
@.str.4 = private unnamed_addr constant [13 x i8] c"coroutine_fn\00", section "llvm.metadata"
@.str.5 = private unnamed_addr constant [111 x i8] c"/home/dtcxzyw/WorkSpace/Projects/compilers/llvm-opt-benchmark/bench/qemu/qemu/include/block/block_int-common.h\00", section "llvm.metadata"
@error_abort = external global ptr, align 8
@.str.69 = private unnamed_addr constant [42 x i8] c"QEMU_IS_ALIGNED(offset, BDRV_SECTOR_SIZE)\00", align 1
@__PRETTY_FUNCTION__.bdrv_driver_pwritev = private unnamed_addr constant [104 x i8] c"int bdrv_driver_pwritev(BlockDriverState *, int64_t, int64_t, QEMUIOVector *, size_t, BdrvRequestFlags)\00", align 1
@.str.70 = private unnamed_addr constant [41 x i8] c"QEMU_IS_ALIGNED(bytes, BDRV_SECTOR_SIZE)\00", align 1
@.str.71 = private unnamed_addr constant [32 x i8] c"bytes <= BDRV_REQUEST_MAX_BYTES\00", align 1
@.str.72 = private unnamed_addr constant [20 x i8] c"drv->bdrv_co_writev\00", align 1

; Function Attrs: nounwind sspstrong uwtable
define internal i32 @bdrv_driver_pwritev(ptr noundef %bs, i64 noundef %offset, i64 noundef %bytes, ptr noundef %qiov, i64 noundef %qiov_offset, i32 noundef %flags) #0 {
entry:
  %retval = alloca i32, align 4
  %bs.addr = alloca ptr, align 8
  %offset.addr = alloca i64, align 8
  %bytes.addr = alloca i64, align 8
  %qiov.addr = alloca ptr, align 8
  %qiov_offset.addr = alloca i64, align 8
  %flags.addr = alloca i32, align 4
  %drv = alloca ptr, align 8
  %emulate_fua = alloca i8, align 1
  %sector_num = alloca i64, align 8
  %nb_sectors = alloca i32, align 4
  %local_qiov = alloca %struct.QEMUIOVector, align 8
  %ret = alloca i32, align 4
  %acb = alloca ptr, align 8
  %co = alloca %struct.CoroutineIOCompletion, align 8
  store ptr %bs, ptr %bs.addr, align 8
  store i64 %offset, ptr %offset.addr, align 8
  store i64 %bytes, ptr %bytes.addr, align 8
  store ptr %qiov, ptr %qiov.addr, align 8
  store i64 %qiov_offset, ptr %qiov_offset.addr, align 8
  store i32 %flags, ptr %flags.addr, align 4
  %0 = load ptr, ptr %bs.addr, align 8
  %drv1 = getelementptr inbounds %struct.BlockDriverState, ptr %0, i32 0, i32 6
  %1 = load ptr, ptr %drv1, align 8
  store ptr %1, ptr %drv, align 8
  store i8 0, ptr %emulate_fua, align 1
  call void @assert_bdrv_graph_readable()
  %2 = load i64, ptr %offset.addr, align 8
  %3 = load i64, ptr %bytes.addr, align 8
  %4 = load ptr, ptr %qiov.addr, align 8
  %5 = load i64, ptr %qiov_offset.addr, align 8
  %call = call i32 @bdrv_check_qiov_request(i64 noundef %2, i64 noundef %3, ptr noundef %4, i64 noundef %5, ptr noundef @error_abort)
  %6 = load ptr, ptr %drv, align 8
  %tobool = icmp ne ptr %6, null
  br i1 %tobool, label %if.end, label %if.then

if.then:                                          ; preds = %entry
  store i32 -123, ptr %retval, align 4
  br label %return

if.end:                                           ; preds = %entry
  %7 = load i32, ptr %flags.addr, align 4
  %and = and i32 %7, 16
  %tobool2 = icmp ne i32 %and, 0
  br i1 %tobool2, label %land.lhs.true, label %if.end7

land.lhs.true:                                    ; preds = %if.end
  %8 = load ptr, ptr %bs.addr, align 8
  %supported_write_flags = getelementptr inbounds %struct.BlockDriverState, ptr %8, i32 0, i32 19
  %9 = load i32, ptr %supported_write_flags, align 4
  %not = xor i32 %9, -1
  %and3 = and i32 %not, 16
  %tobool4 = icmp ne i32 %and3, 0
  br i1 %tobool4, label %if.then5, label %if.end7

if.then5:                                         ; preds = %land.lhs.true
  %10 = load i32, ptr %flags.addr, align 4
  %and6 = and i32 %10, -17
  store i32 %and6, ptr %flags.addr, align 4
  store i8 1, ptr %emulate_fua, align 1
  br label %if.end7

if.end7:                                          ; preds = %if.then5, %land.lhs.true, %if.end
  %11 = load ptr, ptr %bs.addr, align 8
  %supported_write_flags8 = getelementptr inbounds %struct.BlockDriverState, ptr %11, i32 0, i32 19
  %12 = load i32, ptr %supported_write_flags8, align 4
  %13 = load i32, ptr %flags.addr, align 4
  %and9 = and i32 %13, %12
  store i32 %and9, ptr %flags.addr, align 4
  %14 = load ptr, ptr %drv, align 8
  %bdrv_co_pwritev_part = getelementptr inbounds %struct.BlockDriver, ptr %14, i32 0, i32 73
  %15 = call ptr @llvm.ptr.annotation.p0.p0(ptr %bdrv_co_pwritev_part, ptr @.str.4, ptr @.str.5, i32 564, ptr null)
  %16 = load ptr, ptr %15, align 8
  %tobool10 = icmp ne ptr %16, null
  br i1 %tobool10, label %if.then11, label %if.end14

if.then11:                                        ; preds = %if.end7
  %17 = load ptr, ptr %drv, align 8
  %bdrv_co_pwritev_part12 = getelementptr inbounds %struct.BlockDriver, ptr %17, i32 0, i32 73
  %18 = call ptr @llvm.ptr.annotation.p0.p0(ptr %bdrv_co_pwritev_part12, ptr @.str.4, ptr @.str.5, i32 564, ptr null)
  %19 = load ptr, ptr %18, align 8
  %20 = load ptr, ptr %bs.addr, align 8
  %21 = load i64, ptr %offset.addr, align 8
  %22 = load i64, ptr %bytes.addr, align 8
  %23 = load ptr, ptr %qiov.addr, align 8
  %24 = load i64, ptr %qiov_offset.addr, align 8
  %25 = load i32, ptr %flags.addr, align 4
  %call13 = call i32 %19(ptr noundef %20, i64 noundef %21, i64 noundef %22, ptr noundef %23, i64 noundef %24, i32 noundef %25)
  store i32 %call13, ptr %ret, align 4
  br label %emulate_flags

if.end14:                                         ; preds = %if.end7
  %26 = load i64, ptr %qiov_offset.addr, align 8
  %cmp = icmp ugt i64 %26, 0
  br i1 %cmp, label %if.then16, label %lor.lhs.false

lor.lhs.false:                                    ; preds = %if.end14
  %27 = load i64, ptr %bytes.addr, align 8
  %28 = load ptr, ptr %qiov.addr, align 8
  %29 = getelementptr inbounds %struct.QEMUIOVector, ptr %28, i32 0, i32 2
  %size = getelementptr inbounds %struct.anon.15, ptr %29, i32 0, i32 1
  %30 = load i64, ptr %size, align 8
  %cmp15 = icmp ne i64 %27, %30
  br i1 %cmp15, label %if.then16, label %if.end17

if.then16:                                        ; preds = %lor.lhs.false, %if.end14
  %31 = load ptr, ptr %qiov.addr, align 8
  %32 = load i64, ptr %qiov_offset.addr, align 8
  %33 = load i64, ptr %bytes.addr, align 8
  call void @qemu_iovec_init_slice(ptr noundef %local_qiov, ptr noundef %31, i64 noundef %32, i64 noundef %33)
  store ptr %local_qiov, ptr %qiov.addr, align 8
  br label %if.end17

if.end17:                                         ; preds = %if.then16, %lor.lhs.false
  %34 = load ptr, ptr %drv, align 8
  %bdrv_co_pwritev = getelementptr inbounds %struct.BlockDriver, ptr %34, i32 0, i32 72
  %35 = call ptr @llvm.ptr.annotation.p0.p0(ptr %bdrv_co_pwritev, ptr @.str.4, ptr @.str.5, i32 561, ptr null)
  %36 = load ptr, ptr %35, align 8
  %tobool18 = icmp ne ptr %36, null
  br i1 %tobool18, label %if.then19, label %if.end22

if.then19:                                        ; preds = %if.end17
  %37 = load ptr, ptr %drv, align 8
  %bdrv_co_pwritev20 = getelementptr inbounds %struct.BlockDriver, ptr %37, i32 0, i32 72
  %38 = call ptr @llvm.ptr.annotation.p0.p0(ptr %bdrv_co_pwritev20, ptr @.str.4, ptr @.str.5, i32 561, ptr null)
  %39 = load ptr, ptr %38, align 8
  %40 = load ptr, ptr %bs.addr, align 8
  %41 = load i64, ptr %offset.addr, align 8
  %42 = load i64, ptr %bytes.addr, align 8
  %43 = load ptr, ptr %qiov.addr, align 8
  %44 = load i32, ptr %flags.addr, align 4
  %call21 = call i32 %39(ptr noundef %40, i64 noundef %41, i64 noundef %42, ptr noundef %43, i32 noundef %44)
  store i32 %call21, ptr %ret, align 4
  br label %emulate_flags

if.end22:                                         ; preds = %if.end17
  %45 = load ptr, ptr %drv, align 8
  %bdrv_aio_pwritev = getelementptr inbounds %struct.BlockDriver, ptr %45, i32 0, i32 65
  %46 = load ptr, ptr %bdrv_aio_pwritev, align 8
  %tobool23 = icmp ne ptr %46, null
  br i1 %tobool23, label %if.then24, label %if.end33

if.then24:                                        ; preds = %if.end22
  %coroutine = getelementptr inbounds %struct.CoroutineIOCompletion, ptr %co, i32 0, i32 0
  %call25 = call ptr @qemu_coroutine_self()
  store ptr %call25, ptr %coroutine, align 8
  %ret26 = getelementptr inbounds %struct.CoroutineIOCompletion, ptr %co, i32 0, i32 1
  store i32 0, ptr %ret26, align 8
  %47 = load ptr, ptr %drv, align 8
  %bdrv_aio_pwritev27 = getelementptr inbounds %struct.BlockDriver, ptr %47, i32 0, i32 65
  %48 = load ptr, ptr %bdrv_aio_pwritev27, align 8
  %49 = load ptr, ptr %bs.addr, align 8
  %50 = load i64, ptr %offset.addr, align 8
  %51 = load i64, ptr %bytes.addr, align 8
  %52 = load ptr, ptr %qiov.addr, align 8
  %53 = load i32, ptr %flags.addr, align 4
  %call28 = call ptr %48(ptr noundef %49, i64 noundef %50, i64 noundef %51, ptr noundef %52, i32 noundef %53, ptr noundef @bdrv_co_io_em_complete, ptr noundef %co)
  store ptr %call28, ptr %acb, align 8
  %54 = load ptr, ptr %acb, align 8
  %cmp29 = icmp eq ptr %54, null
  br i1 %cmp29, label %if.then30, label %if.else

if.then30:                                        ; preds = %if.then24
  store i32 -5, ptr %ret, align 4
  br label %if.end32

if.else:                                          ; preds = %if.then24
  call void @qemu_coroutine_yield()
  %ret31 = getelementptr inbounds %struct.CoroutineIOCompletion, ptr %co, i32 0, i32 1
  %55 = load i32, ptr %ret31, align 8
  store i32 %55, ptr %ret, align 4
  br label %if.end32

if.end32:                                         ; preds = %if.else, %if.then30
  br label %emulate_flags

if.end33:                                         ; preds = %if.end22
  %56 = load i64, ptr %offset.addr, align 8
  %shr = ashr i64 %56, 9
  store i64 %shr, ptr %sector_num, align 8
  %57 = load i64, ptr %bytes.addr, align 8
  %shr34 = ashr i64 %57, 9
  %conv = trunc i64 %shr34 to i32
  store i32 %conv, ptr %nb_sectors, align 4
  %58 = load i64, ptr %offset.addr, align 8
  %rem = urem i64 %58, 512
  %cmp35 = icmp eq i64 %rem, 0
  br i1 %cmp35, label %if.then37, label %if.else38

if.then37:                                        ; preds = %if.end33
  br label %if.end39

if.else38:                                        ; preds = %if.end33
  call void @__assert_fail(ptr noundef @.str.69, ptr noundef @.str.1, i32 noundef 1135, ptr noundef @__PRETTY_FUNCTION__.bdrv_driver_pwritev) #10
  unreachable

if.end39:                                         ; preds = %if.then37
  %59 = load i64, ptr %bytes.addr, align 8
  %rem40 = urem i64 %59, 512
  %cmp41 = icmp eq i64 %rem40, 0
  br i1 %cmp41, label %if.then43, label %if.else44

if.then43:                                        ; preds = %if.end39
  br label %if.end45

if.else44:                                        ; preds = %if.end39
  call void @__assert_fail(ptr noundef @.str.70, ptr noundef @.str.1, i32 noundef 1136, ptr noundef @__PRETTY_FUNCTION__.bdrv_driver_pwritev) #10
  unreachable

if.end45:                                         ; preds = %if.then43
  %60 = load i64, ptr %bytes.addr, align 8
  %cmp46 = icmp ule i64 %60, 2147483136
  br i1 %cmp46, label %if.then48, label %if.else49

if.then48:                                        ; preds = %if.end45
  br label %if.end50

if.else49:                                        ; preds = %if.end45
  call void @__assert_fail(ptr noundef @.str.71, ptr noundef @.str.1, i32 noundef 1137, ptr noundef @__PRETTY_FUNCTION__.bdrv_driver_pwritev) #10
  unreachable

if.end50:                                         ; preds = %if.then48
  %61 = load ptr, ptr %drv, align 8
  %bdrv_co_writev = getelementptr inbounds %struct.BlockDriver, ptr %61, i32 0, i32 71
  %62 = call ptr @llvm.ptr.annotation.p0.p0(ptr %bdrv_co_writev, ptr @.str.4, ptr @.str.5, i32 543, ptr null)
  %63 = load ptr, ptr %62, align 8
  %tobool51 = icmp ne ptr %63, null
  br i1 %tobool51, label %if.then52, label %if.else53

if.then52:                                        ; preds = %if.end50
  br label %if.end54

if.else53:                                        ; preds = %if.end50
  call void @__assert_fail(ptr noundef @.str.72, ptr noundef @.str.1, i32 noundef 1139, ptr noundef @__PRETTY_FUNCTION__.bdrv_driver_pwritev) #10
  unreachable

if.end54:                                         ; preds = %if.then52
  %64 = load ptr, ptr %drv, align 8
  %bdrv_co_writev55 = getelementptr inbounds %struct.BlockDriver, ptr %64, i32 0, i32 71
  %65 = call ptr @llvm.ptr.annotation.p0.p0(ptr %bdrv_co_writev55, ptr @.str.4, ptr @.str.5, i32 543, ptr null)
  %66 = load ptr, ptr %65, align 8
  %67 = load ptr, ptr %bs.addr, align 8
  %68 = load i64, ptr %sector_num, align 8
  %69 = load i32, ptr %nb_sectors, align 4
  %70 = load ptr, ptr %qiov.addr, align 8
  %71 = load i32, ptr %flags.addr, align 4
  %call56 = call i32 %66(ptr noundef %67, i64 noundef %68, i32 noundef %69, ptr noundef %70, i32 noundef %71)
  store i32 %call56, ptr %ret, align 4
  br label %emulate_flags

emulate_flags:                                    ; preds = %if.end54, %if.end32, %if.then19, %if.then11
  %72 = load i32, ptr %ret, align 4
  %cmp57 = icmp eq i32 %72, 0
  br i1 %cmp57, label %land.lhs.true59, label %if.end64

land.lhs.true59:                                  ; preds = %emulate_flags
  %73 = load i8, ptr %emulate_fua, align 1
  %tobool60 = trunc i8 %73 to i1
  br i1 %tobool60, label %if.then62, label %if.end64

if.then62:                                        ; preds = %land.lhs.true59
  %74 = load ptr, ptr %bs.addr, align 8
  %call63 = call i32 @bdrv_co_flush(ptr noundef %74)
  store i32 %call63, ptr %ret, align 4
  br label %if.end64

if.end64:                                         ; preds = %if.then62, %land.lhs.true59, %emulate_flags
  %75 = load ptr, ptr %qiov.addr, align 8
  %cmp65 = icmp eq ptr %75, %local_qiov
  br i1 %cmp65, label %if.then67, label %if.end68

if.then67:                                        ; preds = %if.end64
  call void @qemu_iovec_destroy(ptr noundef %local_qiov)
  br label %if.end68

if.end68:                                         ; preds = %if.then67, %if.end64
  %76 = load i32, ptr %ret, align 4
  store i32 %76, ptr %retval, align 4
  br label %return

return:                                           ; preds = %if.end68, %if.then
  %77 = load i32, ptr %retval, align 4
  ret i32 %77
}