; Function Attrs: nounwind sspstrong uwtable
define internal i32 @bdrv_driver_pwritev(ptr noundef %bs, i64 noundef %offset, i64 noundef %bytes, ptr noundef %qiov, i64 noundef %qiov_offset, i32 noundef %flags) #0 {
entry:
  %local_qiov = alloca %struct.QEMUIOVector, align 8
  %co = alloca %struct.CoroutineIOCompletion, align 8
  %drv1 = getelementptr inbounds nuw i8, ptr %bs, i64 16
  %0 = load ptr, ptr %drv1, align 8
  tail call void @assert_bdrv_graph_readable() #15
  %call = tail call i32 @bdrv_check_qiov_request(i64 noundef %offset, i64 noundef %bytes, ptr noundef %qiov, i64 noundef %qiov_offset, ptr noundef nonnull @error_abort)
  %tobool.not = icmp eq ptr %0, null
  br i1 %tobool.not, label %return, label %if.end

if.end:                                           ; preds = %entry
  %and = and i32 %flags, 16
  %tobool2.not = icmp eq i32 %and, 0
  %supported_write_flags8.phi.trans.insert = getelementptr inbounds nuw i8, ptr %bs, i64 16588
  %.pre = load i32, ptr %supported_write_flags8.phi.trans.insert, align 4
  %not = and i32 %.pre, 16
  %tobool4.not.not = icmp ne i32 %not, 0
  %and6 = and i32 %flags, -17
  %1 = select i1 %tobool2.not, i1 true, i1 %tobool4.not.not
  %flags.addr.0 = select i1 %1, i32 %flags, i32 %and6
  %and9 = and i32 %.pre, %flags.addr.0
  %bdrv_co_pwritev_part = getelementptr inbounds nuw i8, ptr %0, i64 552
  %2 = tail call ptr @llvm.ptr.annotation.p0.p0(ptr nonnull %bdrv_co_pwritev_part, ptr nonnull @.str.4, ptr nonnull @.str.5, i32 564, ptr null)
  %3 = load ptr, ptr %2, align 8
  %tobool10.not = icmp eq ptr %3, null
  br i1 %tobool10.not, label %if.end14, label %if.then11

if.then11:                                        ; preds = %if.end
  %4 = tail call ptr @llvm.ptr.annotation.p0.p0(ptr nonnull %bdrv_co_pwritev_part, ptr nonnull @.str.4, ptr nonnull @.str.5, i32 564, ptr null)
  %5 = load ptr, ptr %4, align 8
  %call13 = tail call i32 %5(ptr noundef nonnull %bs, i64 noundef %offset, i64 noundef %bytes, ptr noundef %qiov, i64 noundef %qiov_offset, i32 noundef %and9) #15
  br label %emulate_flags

if.end14:                                         ; preds = %if.end
  %cmp.not = icmp eq i64 %qiov_offset, 0
  br i1 %cmp.not, label %lor.lhs.false, label %if.then16

lor.lhs.false:                                    ; preds = %if.end14
  %size = getelementptr inbounds nuw i8, ptr %qiov, i64 32
  %6 = load i64, ptr %size, align 8
  %cmp15.not = icmp eq i64 %bytes, %6
  br i1 %cmp15.not, label %if.end17, label %if.then16

if.then16:                                        ; preds = %lor.lhs.false, %if.end14
  call void @qemu_iovec_init_slice(ptr noundef nonnull %local_qiov, ptr noundef %qiov, i64 noundef %qiov_offset, i64 noundef %bytes) #15
  br label %if.end17

if.end17:                                         ; preds = %if.then16, %lor.lhs.false
  %qiov.addr.1 = phi ptr [ %local_qiov, %if.then16 ], [ %qiov, %lor.lhs.false ]
  %bdrv_co_pwritev = getelementptr inbounds nuw i8, ptr %0, i64 544
  %7 = call ptr @llvm.ptr.annotation.p0.p0(ptr nonnull %bdrv_co_pwritev, ptr nonnull @.str.4, ptr nonnull @.str.5, i32 561, ptr null)
  %8 = load ptr, ptr %7, align 8
  %tobool18.not = icmp eq ptr %8, null
  br i1 %tobool18.not, label %if.end22, label %if.then19

if.then19:                                        ; preds = %if.end17
  %9 = call ptr @llvm.ptr.annotation.p0.p0(ptr nonnull %bdrv_co_pwritev, ptr nonnull @.str.4, ptr nonnull @.str.5, i32 561, ptr null)
  %10 = load ptr, ptr %9, align 8
  %call21 = call i32 %10(ptr noundef nonnull %bs, i64 noundef %offset, i64 noundef %bytes, ptr noundef nonnull %qiov.addr.1, i32 noundef %and9) #15
  br label %emulate_flags

if.end22:                                         ; preds = %if.end17
  %bdrv_aio_pwritev = getelementptr inbounds nuw i8, ptr %0, i64 488
  %11 = load ptr, ptr %bdrv_aio_pwritev, align 8
  %tobool23.not = icmp eq ptr %11, null
  br i1 %tobool23.not, label %if.end33, label %if.then24

if.then24:                                        ; preds = %if.end22
  %call25 = call ptr @qemu_coroutine_self() #15
  store ptr %call25, ptr %co, align 8
  %ret26 = getelementptr inbounds nuw i8, ptr %co, i64 8
  store i32 0, ptr %ret26, align 8
  %12 = load ptr, ptr %bdrv_aio_pwritev, align 8
  %call28 = call ptr %12(ptr noundef nonnull %bs, i64 noundef %offset, i64 noundef %bytes, ptr noundef nonnull %qiov.addr.1, i32 noundef %and9, ptr noundef nonnull @bdrv_co_io_em_complete, ptr noundef nonnull %co) #15
  %cmp29 = icmp eq ptr %call28, null
  br i1 %cmp29, label %if.end64, label %if.else

if.else:                                          ; preds = %if.then24
  call void @qemu_coroutine_yield() #15
  %13 = load i32, ptr %ret26, align 8
  br label %emulate_flags

if.end33:                                         ; preds = %if.end22
  %shr = ashr i64 %offset, 9
  %shr34 = lshr i64 %bytes, 9
  %conv = trunc i64 %shr34 to i32
  %rem = and i64 %offset, 511
  %cmp35 = icmp eq i64 %rem, 0
  br i1 %cmp35, label %if.end39, label %if.else38

if.else38:                                        ; preds = %if.end33
  call void @__assert_fail(ptr noundef nonnull @.str.69, ptr noundef nonnull @.str.1, i32 noundef 1135, ptr noundef nonnull @__PRETTY_FUNCTION__.bdrv_driver_pwritev) #16
  unreachable

if.end39:                                         ; preds = %if.end33
  %rem40 = and i64 %bytes, 511
  %cmp41 = icmp eq i64 %rem40, 0
  br i1 %cmp41, label %if.end45, label %if.else44

if.else44:                                        ; preds = %if.end39
  call void @__assert_fail(ptr noundef nonnull @.str.70, ptr noundef nonnull @.str.1, i32 noundef 1136, ptr noundef nonnull @__PRETTY_FUNCTION__.bdrv_driver_pwritev) #16
  unreachable

if.end45:                                         ; preds = %if.end39
  %cmp46 = icmp ult i64 %bytes, 2147483137
  br i1 %cmp46, label %if.end50, label %if.else49

if.else49:                                        ; preds = %if.end45
  call void @__assert_fail(ptr noundef nonnull @.str.71, ptr noundef nonnull @.str.1, i32 noundef 1137, ptr noundef nonnull @__PRETTY_FUNCTION__.bdrv_driver_pwritev) #16
  unreachable

if.end50:                                         ; preds = %if.end45
  %bdrv_co_writev = getelementptr inbounds nuw i8, ptr %0, i64 536
  %14 = call ptr @llvm.ptr.annotation.p0.p0(ptr nonnull %bdrv_co_writev, ptr nonnull @.str.4, ptr nonnull @.str.5, i32 543, ptr null)
  %15 = load ptr, ptr %14, align 8
  %tobool51.not = icmp eq ptr %15, null
  br i1 %tobool51.not, label %if.else53, label %if.end54

if.else53:                                        ; preds = %if.end50
  call void @__assert_fail(ptr noundef nonnull @.str.72, ptr noundef nonnull @.str.1, i32 noundef 1139, ptr noundef nonnull @__PRETTY_FUNCTION__.bdrv_driver_pwritev) #16
  unreachable

if.end54:                                         ; preds = %if.end50
  %16 = call ptr @llvm.ptr.annotation.p0.p0(ptr nonnull %bdrv_co_writev, ptr nonnull @.str.4, ptr nonnull @.str.5, i32 543, ptr null)
  %17 = load ptr, ptr %16, align 8
  %call56 = call i32 %17(ptr noundef nonnull %bs, i64 noundef %shr, i32 noundef %conv, ptr noundef nonnull %qiov.addr.1, i32 noundef %and9) #15
  br label %emulate_flags

emulate_flags:                                    ; preds = %if.else, %if.end54, %if.then19, %if.then11
  %qiov.addr.0 = phi ptr [ %qiov, %if.then11 ], [ %qiov.addr.1, %if.then19 ], [ %qiov.addr.1, %if.else ], [ %qiov.addr.1, %if.end54 ]
  %ret.0 = phi i32 [ %call13, %if.then11 ], [ %call21, %if.then19 ], [ %13, %if.else ], [ %call56, %if.end54 ]
  %18 = or i32 %ret.0, %not
  %19 = icmp ne i32 %18, 0
  %brmerge = select i1 %tobool2.not, i1 true, i1 %19
  br i1 %brmerge, label %if.end64, label %if.then62

if.then62:                                        ; preds = %emulate_flags
  %call63 = call i32 @bdrv_co_flush(ptr noundef nonnull %bs)
  br label %if.end64

if.end64:                                         ; preds = %if.then24, %emulate_flags, %if.then62
  %qiov.addr.054 = phi ptr [ %qiov.addr.0, %if.then62 ], [ %qiov.addr.0, %emulate_flags ], [ %qiov.addr.1, %if.then24 ]
  %ret.1 = phi i32 [ %call63, %if.then62 ], [ %ret.0, %emulate_flags ], [ -5, %if.then24 ]
  %cmp65 = icmp eq ptr %qiov.addr.054, %local_qiov
  br i1 %cmp65, label %if.then67, label %return

if.then67:                                        ; preds = %if.end64
  call void @qemu_iovec_destroy(ptr noundef nonnull %local_qiov) #15
  br label %return

return:                                           ; preds = %if.end64, %if.then67, %entry
  %retval.0 = phi i32 [ -123, %entry ], [ %ret.1, %if.then67 ], [ %ret.1, %if.end64 ]
  ret i32 %retval.0
}